(dp0
S'show_imports'
p1
I1
sS'prj_name'
p2
S'serial_sender'
p3
sS'docformat'
p4
S'restructuredtext'
p5
sS'inheritance'
p6
S'included'
p7
sS'help'
p8
NsS'modules'
p9
(S'/home/gregory/workspaces/eclipse-3.5/serial_sender/src/BootloaderScp.py'
p10
S'/home/gregory/workspaces/eclipse-3.5/serial_sender/src/scan.py'
p11
S'/home/gregory/workspaces/eclipse-3.5/serial_sender/src/serial_sender.py'
p12
S'/home/gregory/workspaces/eclipse-3.5/serial_sender/src/setup.py'
p13
tp14
sS'private'
p15
I1
sS'prj_url'
p16
NsS'introspect_or_parse'
p17
S'both'
p18
sS'frames'
p19
I1
sS'css'
p20
S'default'
p21
sS'target'
p22
S'html'
p23
s.